target datalayout = "e-m:e-p270:32:32-p271:32:32-p272:64:64-i64:64-i128:128-f80:128-n8:16:32:64-S128"
target triple = "x86_64-unknown-linux-gnu"

; Function Attrs: mustprogress uwtable
define hidden void @_ZNK7datalog11rel_context20display_output_factsERKNS_8rule_setERSo(ptr noundef nonnull align 8 dereferenceable(432) %this, ptr noundef nonnull align 8 dereferenceable(248) %rules, ptr noundef nonnull align 8 dereferenceable(8) %out) unnamed_addr #4 align 2 {
entry:
  %this.addr = alloca ptr, align 8
  %rules.addr = alloca ptr, align 8
  %out.addr = alloca ptr, align 8
  store ptr %this, ptr %this.addr, align 8
  store ptr %rules, ptr %rules.addr, align 8
  store ptr %out, ptr %out.addr, align 8
  %this1 = load ptr, ptr %this.addr, align 8
  %vtable = load ptr, ptr %this1, align 8
  %vfn = getelementptr inbounds ptr, ptr %vtable, i64 25
  %0 = load ptr, ptr %vfn, align 8
  %call = call noundef nonnull align 8 dereferenceable(200) ptr %0(ptr noundef nonnull align 8 dereferenceable(432) %this1)
  %1 = load ptr, ptr %rules.addr, align 8
  %2 = load ptr, ptr %out.addr, align 8
  call void @_ZNK7datalog16relation_manager21display_output_tablesERKNS_8rule_setERSo(ptr noundef nonnull align 8 dereferenceable(200) %call, ptr noundef nonnull align 8 dereferenceable(248) %1, ptr noundef nonnull align 8 dereferenceable(8) %2)
  ret void
}