; Function Attrs: mustprogress uwtable
define hidden void @_ZNK7datalog11rel_context20display_output_factsERKNS_8rule_setERSo(ptr noundef nonnull align 8 dereferenceable(432) %this, ptr noundef nonnull align 8 dereferenceable(248) %rules, ptr noundef nonnull align 8 dereferenceable(8) %out) unnamed_addr #3 align 2 {
entry:
  %vtable = load ptr, ptr %this, align 8
  %vfn = getelementptr inbounds i8, ptr %vtable, i64 200
  %0 = load ptr, ptr %vfn, align 8
  %call = tail call noundef nonnull align 8 dereferenceable(200) ptr %0(ptr noundef nonnull align 8 dereferenceable(432) %this)
  tail call void @_ZNK7datalog16relation_manager21display_output_tablesERKNS_8rule_setERSo(ptr noundef nonnull align 8 dereferenceable(200) %call, ptr noundef nonnull align 8 dereferenceable(248) %rules, ptr noundef nonnull align 8 dereferenceable(8) %out)
  ret void
}